target datalayout = "e-m:e-p270:32:32-p271:32:32-p272:64:64-i64:64-i128:128-f80:128-n8:16:32:64-S128"
target triple = "x86_64-pc-linux-gnu"

%struct.evp_aead_ctx_st = type { ptr, ptr }
%struct.AEAD_TLS_CTX = type { %struct.evp_cipher_ctx_st, %struct.hmac_ctx_st, [64 x i8], i8, i8 }
%struct.evp_cipher_ctx_st = type { ptr, ptr, ptr, i32, i32, i32, [16 x i8], [16 x i8], [32 x i8], i32, i32, i32, i32, [32 x i8] }
%struct.hmac_ctx_st = type { ptr, %struct.env_md_ctx_st, %struct.env_md_ctx_st, %struct.env_md_ctx_st }
%struct.env_md_ctx_st = type { ptr, ptr, ptr, ptr }

@.str = private unnamed_addr constant [125 x i8] c"generated/home/dtcxzyw/WorkSpace/Projects/compilers/llvm-opt-benchmark/bench/libquic/libquic/boringssl/crypto/cipher/e_tls.c\00", align 1

; Function Attrs: nounwind uwtable
define internal void @aead_tls_cleanup(ptr noundef %0) #0 {
  %2 = alloca ptr, align 8
  %3 = alloca ptr, align 8
  store ptr %0, ptr %2, align 8, !tbaa !6
  call void @llvm.lifetime.start.p0(i64 8, ptr %3) #8
  %4 = load ptr, ptr %2, align 8, !tbaa !6
  %5 = getelementptr inbounds nuw %struct.evp_aead_ctx_st, ptr %4, i32 0, i32 1
  %6 = load ptr, ptr %5, align 8, !tbaa !17
  store ptr %6, ptr %3, align 8, !tbaa !20
  %7 = load ptr, ptr %3, align 8, !tbaa !20
  %8 = getelementptr inbounds nuw %struct.AEAD_TLS_CTX, ptr %7, i32 0, i32 0
  %9 = call i32 @EVP_CIPHER_CTX_cleanup(ptr noundef %8)
  %10 = load ptr, ptr %3, align 8, !tbaa !20
  %11 = getelementptr inbounds nuw %struct.AEAD_TLS_CTX, ptr %10, i32 0, i32 1
  call void @HMAC_CTX_cleanup(ptr noundef %11)
  %12 = load ptr, ptr %3, align 8, !tbaa !20
  %13 = getelementptr inbounds nuw %struct.AEAD_TLS_CTX, ptr %12, i32 0, i32 2
  call void @OPENSSL_cleanse(ptr noundef %13, i64 noundef 64)
  %14 = load ptr, ptr %3, align 8, !tbaa !20
  call void @free(ptr noundef %14) #8
  %15 = load ptr, ptr %2, align 8, !tbaa !6
  %16 = getelementptr inbounds nuw %struct.evp_aead_ctx_st, ptr %15, i32 0, i32 1
  store ptr null, ptr %16, align 8, !tbaa !17
  call void @llvm.lifetime.end.p0(i64 8, ptr %3) #8
  ret void
}

; Function Attrs: nounwind uwtable
define internal i32 @aead_tls_init(ptr noundef %0, ptr noundef %1, i64 noundef %2, i64 noundef %3, i32 noundef %4, ptr noundef %5, ptr noundef %6, i8 noundef signext %7) #0 {
  %9 = alloca i32, align 4
  %10 = alloca ptr, align 8
  %11 = alloca ptr, align 8
  %12 = alloca i64, align 8
  %13 = alloca i64, align 8
  %14 = alloca i32, align 4
  %15 = alloca ptr, align 8
  %16 = alloca ptr, align 8
  %17 = alloca i8, align 1
  %18 = alloca i64, align 8
  %19 = alloca i64, align 8
  %20 = alloca ptr, align 8
  %21 = alloca i32, align 4
  store ptr %0, ptr %10, align 8, !tbaa !6
  store ptr %1, ptr %11, align 8, !tbaa !11
  store i64 %2, ptr %12, align 8, !tbaa !13
  store i64 %3, ptr %13, align 8, !tbaa !13
  store i32 %4, ptr %14, align 4, !tbaa !15
  store ptr %5, ptr %15, align 8, !tbaa !42
  store ptr %6, ptr %16, align 8, !tbaa !43
  store i8 %7, ptr %17, align 1, !tbaa !33
  %22 = load i64, ptr %13, align 8, !tbaa !13
  %23 = icmp ne i64 %22, 0
  br i1 %23, label %24, label %30

24:                                               ; preds = %8
  %25 = load i64, ptr %13, align 8, !tbaa !13
  %26 = load ptr, ptr %16, align 8, !tbaa !43
  %27 = call i64 @EVP_MD_size(ptr noundef %26)
  %28 = icmp ne i64 %25, %27
  br i1 %28, label %29, label %30

29:                                               ; preds = %24
  call void @ERR_put_error(i32 noundef 30, i32 noundef 0, i32 noundef 122, ptr noundef @.str, i32 noundef 61)
  store i32 0, ptr %9, align 4
  br label %108

30:                                               ; preds = %24, %8
  %31 = load i64, ptr %12, align 8, !tbaa !13
  %32 = load ptr, ptr %10, align 8, !tbaa !6
  %33 = getelementptr inbounds nuw %struct.evp_aead_ctx_st, ptr %32, i32 0, i32 0
  %34 = load ptr, ptr %33, align 8, !tbaa !32
  %35 = call i64 @EVP_AEAD_key_length(ptr noundef %34)
  %36 = icmp ne i64 %31, %35
  br i1 %36, label %37, label %38

37:                                               ; preds = %30
  call void @ERR_put_error(i32 noundef 30, i32 noundef 0, i32 noundef 102, ptr noundef @.str, i32 noundef 66)
  store i32 0, ptr %9, align 4
  br label %108

38:                                               ; preds = %30
  call void @llvm.lifetime.start.p0(i64 8, ptr %18) #8
  %39 = load ptr, ptr %16, align 8, !tbaa !43
  %40 = call i64 @EVP_MD_size(ptr noundef %39)
  store i64 %40, ptr %18, align 8, !tbaa !13
  call void @llvm.lifetime.start.p0(i64 8, ptr %19) #8
  %41 = load ptr, ptr %15, align 8, !tbaa !42
  %42 = call i32 @EVP_CIPHER_key_length(ptr noundef %41)
  %43 = zext i32 %42 to i64
  store i64 %43, ptr %19, align 8, !tbaa !13
  call void @llvm.lifetime.start.p0(i64 8, ptr %20) #8
  %44 = call noalias ptr @malloc(i64 noundef 328) #9
  store ptr %44, ptr %20, align 8, !tbaa !20
  %45 = load ptr, ptr %20, align 8, !tbaa !20
  %46 = icmp eq ptr %45, null
  br i1 %46, label %47, label %48

47:                                               ; preds = %38
  call void @ERR_put_error(i32 noundef 30, i32 noundef 0, i32 noundef 65, ptr noundef @.str, i32 noundef 79)
  store i32 0, ptr %9, align 4
  store i32 1, ptr %21, align 4
  br label %107

48:                                               ; preds = %38
  %49 = load ptr, ptr %20, align 8, !tbaa !20
  %50 = getelementptr inbounds nuw %struct.AEAD_TLS_CTX, ptr %49, i32 0, i32 0
  call void @EVP_CIPHER_CTX_init(ptr noundef %50)
  %51 = load ptr, ptr %20, align 8, !tbaa !20
  %52 = getelementptr inbounds nuw %struct.AEAD_TLS_CTX, ptr %51, i32 0, i32 1
  call void @HMAC_CTX_init(ptr noundef %52)
  %53 = load ptr, ptr %20, align 8, !tbaa !20
  %54 = getelementptr inbounds nuw %struct.AEAD_TLS_CTX, ptr %53, i32 0, i32 2
  %55 = getelementptr inbounds [64 x i8], ptr %54, i64 0, i64 0
  %56 = load ptr, ptr %11, align 8, !tbaa !11
  %57 = load i64, ptr %18, align 8, !tbaa !13
  call void @llvm.memcpy.p0.p0.i64(ptr align 8 %55, ptr align 1 %56, i64 %57, i1 false)
  %58 = load i64, ptr %18, align 8, !tbaa !13
  %59 = trunc i64 %58 to i8
  %60 = load ptr, ptr %20, align 8, !tbaa !20
  %61 = getelementptr inbounds nuw %struct.AEAD_TLS_CTX, ptr %60, i32 0, i32 3
  store i8 %59, ptr %61, align 8, !tbaa !36
  %62 = load i8, ptr %17, align 1, !tbaa !33
  %63 = load ptr, ptr %20, align 8, !tbaa !20
  %64 = getelementptr inbounds nuw %struct.AEAD_TLS_CTX, ptr %63, i32 0, i32 4
  store i8 %62, ptr %64, align 1, !tbaa !34
  %65 = load ptr, ptr %20, align 8, !tbaa !20
  %66 = load ptr, ptr %10, align 8, !tbaa !6
  %67 = getelementptr inbounds nuw %struct.evp_aead_ctx_st, ptr %66, i32 0, i32 1
  store ptr %65, ptr %67, align 8, !tbaa !17
  %68 = load ptr, ptr %20, align 8, !tbaa !20
  %69 = getelementptr inbounds nuw %struct.AEAD_TLS_CTX, ptr %68, i32 0, i32 0
  %70 = load ptr, ptr %15, align 8, !tbaa !42
  %71 = load ptr, ptr %11, align 8, !tbaa !11
  %72 = load i64, ptr %18, align 8, !tbaa !13
  %73 = getelementptr inbounds nuw i8, ptr %71, i64 %72
  %74 = load i8, ptr %17, align 1, !tbaa !33
  %75 = sext i8 %74 to i32
  %76 = icmp ne i32 %75, 0
  br i1 %76, label %77, label %83

77:                                               ; preds = %48
  %78 = load ptr, ptr %11, align 8, !tbaa !11
  %79 = load i64, ptr %18, align 8, !tbaa !13
  %80 = load i64, ptr %19, align 8, !tbaa !13
  %81 = add i64 %79, %80
  %82 = getelementptr inbounds nuw i8, ptr %78, i64 %81
  br label %84

83:                                               ; preds = %48
  br label %84

84:                                               ; preds = %83, %77
  %85 = phi ptr [ %82, %77 ], [ null, %83 ]
  %86 = load i32, ptr %14, align 4, !tbaa !15
  %87 = icmp eq i32 %86, 1
  %88 = zext i1 %87 to i32
  %89 = call i32 @EVP_CipherInit_ex(ptr noundef %69, ptr noundef %70, ptr noundef null, ptr noundef %73, ptr noundef %85, i32 noundef %88)
  %90 = icmp ne i32 %89, 0
  br i1 %90, label %91, label %99

91:                                               ; preds = %84
  %92 = load ptr, ptr %20, align 8, !tbaa !20
  %93 = getelementptr inbounds nuw %struct.AEAD_TLS_CTX, ptr %92, i32 0, i32 1
  %94 = load ptr, ptr %11, align 8, !tbaa !11
  %95 = load i64, ptr %18, align 8, !tbaa !13
  %96 = load ptr, ptr %16, align 8, !tbaa !43
  %97 = call i32 @HMAC_Init_ex(ptr noundef %93, ptr noundef %94, i64 noundef %95, ptr noundef %96, ptr noundef null)
  %98 = icmp ne i32 %97, 0
  br i1 %98, label %103, label %99

99:                                               ; preds = %91, %84
  %100 = load ptr, ptr %10, align 8, !tbaa !6
  call void @aead_tls_cleanup(ptr noundef %100)
  %101 = load ptr, ptr %10, align 8, !tbaa !6
  %102 = getelementptr inbounds nuw %struct.evp_aead_ctx_st, ptr %101, i32 0, i32 1
  store ptr null, ptr %102, align 8, !tbaa !17
  store i32 0, ptr %9, align 4
  store i32 1, ptr %21, align 4
  br label %107

103:                                              ; preds = %91
  %104 = load ptr, ptr %20, align 8, !tbaa !20
  %105 = getelementptr inbounds nuw %struct.AEAD_TLS_CTX, ptr %104, i32 0, i32 0
  %106 = call i32 @EVP_CIPHER_CTX_set_padding(ptr noundef %105, i32 noundef 0)
  store i32 1, ptr %9, align 4
  store i32 1, ptr %21, align 4
  br label %107

107:                                              ; preds = %103, %99, %47
  call void @llvm.lifetime.end.p0(i64 8, ptr %20) #8
  call void @llvm.lifetime.end.p0(i64 8, ptr %19) #8
  call void @llvm.lifetime.end.p0(i64 8, ptr %18) #8
  br label %108

108:                                              ; preds = %107, %37, %29
  %109 = load i32, ptr %9, align 4
  ret i32 %109
}