; Function Attrs: nounwind uwtable
define internal fastcc range(i32 0, 2) i32 @aead_tls_init(ptr noundef captures(none) %0, ptr noundef %1, i64 noundef %2, i64 noundef %3, i32 noundef %4, ptr noundef %5, ptr noundef %6, i8 noundef signext range(i8 0, 2) %7) unnamed_addr #1 {
  %.not = icmp eq i64 %3, 0
  br i1 %.not, label %12, label %9

9:                                                ; preds = %8
  %10 = tail call i64 @EVP_MD_size(ptr noundef %6) #8
  %.not37 = icmp eq i64 %3, %10
  br i1 %.not37, label %12, label %11

11:                                               ; preds = %9
  tail call void @ERR_put_error(i32 noundef 30, i32 noundef 0, i32 noundef 122, ptr noundef nonnull @.str, i32 noundef 61) #8
  br label %45

12:                                               ; preds = %9, %8
  %13 = load ptr, ptr %0, align 8, !tbaa !22
  %14 = tail call i64 @EVP_AEAD_key_length(ptr noundef %13) #8
  %.not38 = icmp eq i64 %2, %14
  br i1 %.not38, label %16, label %15

15:                                               ; preds = %12
  tail call void @ERR_put_error(i32 noundef 30, i32 noundef 0, i32 noundef 102, ptr noundef nonnull @.str, i32 noundef 66) #8
  br label %45

16:                                               ; preds = %12
  %17 = tail call i64 @EVP_MD_size(ptr noundef %6) #8
  %18 = tail call i32 @EVP_CIPHER_key_length(ptr noundef %5) #8
  %19 = tail call noalias dereferenceable_or_null(328) ptr @malloc(i64 noundef 328) #9
  %20 = icmp eq ptr %19, null
  br i1 %20, label %21, label %22

21:                                               ; preds = %16
  tail call void @ERR_put_error(i32 noundef 30, i32 noundef 0, i32 noundef 65, ptr noundef nonnull @.str, i32 noundef 79) #8
  br label %45

22:                                               ; preds = %16
  %23 = zext i32 %18 to i64
  tail call void @EVP_CIPHER_CTX_init(ptr noundef nonnull %19) #8
  %24 = getelementptr inbounds nuw i8, ptr %19, i64 152
  tail call void @HMAC_CTX_init(ptr noundef nonnull %24) #8
  %25 = getelementptr inbounds nuw i8, ptr %19, i64 256
  tail call void @llvm.memcpy.p0.p0.i64(ptr nonnull align 8 %25, ptr align 1 %1, i64 %17, i1 false)
  %26 = trunc i64 %17 to i8
  %27 = getelementptr inbounds nuw i8, ptr %19, i64 320
  store i8 %26, ptr %27, align 8, !tbaa !29
  %28 = getelementptr inbounds nuw i8, ptr %19, i64 321
  store i8 %7, ptr %28, align 1, !tbaa !24
  %29 = getelementptr inbounds nuw i8, ptr %0, i64 8
  store ptr %19, ptr %29, align 8, !tbaa !6
  %30 = getelementptr inbounds nuw i8, ptr %1, i64 %17
  %.not39 = icmp eq i8 %7, 0
  %31 = getelementptr i8, ptr %30, i64 %23
  %32 = select i1 %.not39, ptr null, ptr %31
  %33 = icmp eq i32 %4, 1
  %34 = zext i1 %33 to i32
  %35 = tail call i32 @EVP_CipherInit_ex(ptr noundef nonnull %19, ptr noundef %5, ptr noundef null, ptr noundef %30, ptr noundef %32, i32 noundef %34) #8
  %.not40 = icmp eq i32 %35, 0
  br i1 %.not40, label %38, label %36

36:                                               ; preds = %22
  %37 = tail call i32 @HMAC_Init_ex(ptr noundef nonnull %24, ptr noundef %1, i64 noundef %17, ptr noundef %6, ptr noundef null) #8
  %.not41 = icmp eq i32 %37, 0
  br i1 %.not41, label %38, label %43

38:                                               ; preds = %36, %22
  %39 = load ptr, ptr %29, align 8, !tbaa !6
  %40 = tail call i32 @EVP_CIPHER_CTX_cleanup(ptr noundef %39) #8
  %41 = getelementptr inbounds nuw i8, ptr %39, i64 152
  tail call void @HMAC_CTX_cleanup(ptr noundef nonnull %41) #8
  %42 = getelementptr inbounds nuw i8, ptr %39, i64 256
  tail call void @OPENSSL_cleanse(ptr noundef nonnull %42, i64 noundef 64) #8
  tail call void @free(ptr noundef %39) #8
  store ptr null, ptr %29, align 8, !tbaa !6
  br label %45

43:                                               ; preds = %36
  %44 = tail call i32 @EVP_CIPHER_CTX_set_padding(ptr noundef nonnull %19, i32 noundef 0) #8
  br label %45

45:                                               ; preds = %21, %38, %43, %15, %11
  %.0 = phi i32 [ 0, %11 ], [ 0, %15 ], [ 0, %21 ], [ 1, %43 ], [ 0, %38 ]
  ret i32 %.0
}